Certificate:
    Data:
        Version: 3 (0x2)
        Serial Number: 1 (0x1)
        Signature Algorithm: sha256WithRSAEncryption
        Issuer: C=US, ST=FL, L=Miami, O=AtlasInside, OU=IT, CN=AtlasInside CA/name=Authority/emailAddress=osmontero@icloud.com
        Validity
            Not Before: Aug  7 17:25:03 2020 GMT
            Not After : Aug  5 17:25:03 2030 GMT
        Subject: C=US, ST=FL, L=Miami, O=AtlasInside, OU=IT, CN=net1/name=Authority/emailAddress=osmontero@icloud.com
        Subject Public Key Info:
            Public Key Algorithm: rsaEncryption
                RSA Public-Key: (2048 bit)
                Modulus:
                    00:aa:96:dc:77:0e:96:2f:d9:2a:d6:9f:4e:f1:30:
                    32:a9:81:b6:0d:c0:38:61:36:8b:62:19:f6:63:1d:
                    f6:62:d4:09:04:ab:8b:a7:13:5e:2e:e3:c5:88:fc:
                    f4:a1:cf:d8:00:88:4f:a1:4c:45:19:c7:31:b9:78:
                    ec:9d:16:a7:5c:01:54:40:7d:30:4d:5d:1a:6f:7d:
                    68:e8:d3:d4:92:74:ab:3e:ea:0b:09:10:a4:eb:31:
                    4c:13:37:63:d2:57:eb:80:e2:4d:f1:85:49:02:0f:
                    b1:1e:49:16:91:cb:fb:8d:7a:cb:1a:8a:0c:bb:69:
                    3d:e3:57:e2:db:30:21:3c:53:20:07:e4:f6:07:cf:
                    2f:51:0a:1e:2e:a8:4d:67:2c:26:6d:a5:d8:19:f9:
                    dd:33:3e:2e:86:a2:94:30:5c:18:ed:cd:9f:50:2e:
                    37:9d:07:42:e1:71:b5:2d:bc:1f:e6:9f:58:06:d5:
                    69:a0:e5:31:01:9f:39:94:63:c6:a3:67:e3:34:c0:
                    3b:0f:24:8a:56:d7:92:5d:90:00:fc:08:c8:4e:41:
                    7a:25:a8:0e:d5:3a:88:eb:4f:8c:d4:7b:cd:a1:52:
                    b5:42:01:2d:66:2a:d6:f1:0a:28:df:84:58:1b:07:
                    d0:1c:c4:da:cf:97:a2:da:26:0c:4c:af:a3:8d:62:
                    7d:07
                Exponent: 65537 (0x10001)
        X509v3 extensions:
            X509v3 Basic Constraints:
                CA:FALSE
            Netscape Cert Type:
                SSL Server
            Netscape Comment:
                Easy-RSA Generated Server Certificate
            X509v3 Subject Key Identifier:
                51:BD:C1:27:09:B0:74:ED:76:BE:37:B4:2A:01:7A:1A:52:32:5E:AE
            X509v3 Authority Key Identifier:
                keyid:95:AD:58:9D:B7:F3:39:49:5E:84:7F:42:A3:CC:41:9E:FA:95:C5:D5
                DirName:/C=US/ST=FL/L=Miami/O=AtlasInside/OU=IT/CN=AtlasInside CA/name=Authority/emailAddress=osmontero@icloud.com
                serial:09:7D:A2:C2:C7:D4:39:EA:E4:01:6A:7C:BD:65:2E:AA:47:4F:2A:1B

            X509v3 Extended Key Usage:
                TLS Web Server Authentication
            X509v3 Key Usage:
                Digital Signature, Key Encipherment
            X509v3 Subject Alternative Name:
                DNS:server
    Signature Algorithm: sha256WithRSAEncryption
         7b:63:60:1b:4f:e7:e2:dd:d4:0a:16:e7:91:cb:aa:6b:7b:f1:
         58:5d:a4:92:b0:f7:3b:63:7d:e2:1c:8a:e5:59:68:d4:e3:5c:
         6d:ed:7d:69:3b:ac:f6:d3:64:d2:99:98:9d:a9:f9:fb:6c:47:
         39:48:a3:75:4a:f1:74:f1:ca:57:4c:09:70:15:d5:cc:98:ab:
         41:e5:83:66:13:2b:2b:c3:6a:d1:de:99:41:c8:b4:39:5d:24:
         57:09:23:63:5f:23:de:6e:1b:72:11:9d:e6:1e:7f:3f:f3:df:
         59:1e:86:1b:82:93:39:f0:70:d7:50:c5:33:96:32:29:47:4f:
         d9:a5:d4:18:be:96:8f:0a:2d:b4:e6:58:ce:33:dd:ed:5e:3c:
         6e:a5:3c:21:2f:1a:8f:73:bf:1e:de:8f:78:55:68:4b:b7:23:
         a9:50:42:11:8a:ef:20:48:f1:1b:4f:42:2b:77:b8:08:d5:a6:
         d7:4b:04:3e:8d:af:eb:07:bf:bf:4c:5e:03:08:da:db:2f:d8:
         4d:88:4b:b4:37:b1:f5:41:2c:d6:08:6e:56:97:1b:ce:fa:b2:
         23:9e:63:7e:79:20:3b:1d:72:c1:c2:a2:2f:b7:e2:07:8a:8b:
         24:89:af:4a:5d:ca:2b:9f:ee:eb:0c:98:96:f9:92:9c:08:18:
         43:66:75:60
-----BEGIN CERTIFICATE-----
MIIFQTCCBCmgAwIBAgIBATANBgkqhkiG9w0BAQsFADCBnzELMAkGA1UEBhMCVVMx
CzAJBgNVBAgTAkZMMQ4wDAYDVQQHEwVNaWFtaTEUMBIGA1UEChMLQXRsYXNJbnNp
ZGUxCzAJBgNVBAsTAklUMRcwFQYDVQQDEw5BdGxhc0luc2lkZSBDQTESMBAGA1UE
KRMJQXV0aG9yaXR5MSMwIQYJKoZIhvcNAQkBFhRvc21vbnRlcm9AaWNsb3VkLmNv
bTAeFw0yMDA4MDcxNzI1MDNaFw0zMDA4MDUxNzI1MDNaMIGVMQswCQYDVQQGEwJV
UzELMAkGA1UECBMCRkwxDjAMBgNVBAcTBU1pYW1pMRQwEgYDVQQKEwtBdGxhc0lu
c2lkZTELMAkGA1UECxMCSVQxDTALBgNVBAMTBG5ldDExEjAQBgNVBCkTCUF1dGhv
cml0eTEjMCEGCSqGSIb3DQEJARYUb3Ntb250ZXJvQGljbG91ZC5jb20wggEiMA0G
CSqGSIb3DQEBAQUAA4IBDwAwggEKAoIBAQCqltx3DpYv2SrWn07xMDKpgbYNwDhh
NotiGfZjHfZi1AkEq4unE14u48WI/PShz9gAiE+hTEUZxzG5eOydFqdcAVRAfTBN
XRpvfWjo09SSdKs+6gsJEKTrMUwTN2PSV+uA4k3xhUkCD7EeSRaRy/uNessaigy7
aT3jV+LbMCE8UyAH5PYHzy9RCh4uqE1nLCZtpdgZ+d0zPi6GopQwXBjtzZ9QLjed
B0LhcbUtvB/mn1gG1Wmg5TEBnzmUY8ajZ+M0wDsPJIpW15JdkAD8CMhOQXolqA7V
OojrT4zUe82hUrVCAS1mKtbxCijfhFgbB9AcxNrPl6LaJgxMr6ONYn0HAgMBAAGj
ggGOMIIBijAJBgNVHRMEAjAAMBEGCWCGSAGG+EIBAQQEAwIGQDA0BglghkgBhvhC
AQ0EJxYlRWFzeS1SU0EgR2VuZXJhdGVkIFNlcnZlciBDZXJ0aWZpY2F0ZTAdBgNV
HQ4EFgQUUb3BJwmwdO12vje0KgF6GlIyXq4wgd8GA1UdIwSB1zCB1IAUla1Ynbfz
OUlehH9Co8xBnvqVxdWhgaWkgaIwgZ8xCzAJBgNVBAYTAlVTMQswCQYDVQQIEwJG
TDEOMAwGA1UEBxMFTWlhbWkxFDASBgNVBAoTC0F0bGFzSW5zaWRlMQswCQYDVQQL
EwJJVDEXMBUGA1UEAxMOQXRsYXNJbnNpZGUgQ0ExEjAQBgNVBCkTCUF1dGhvcml0
eTEjMCEGCSqGSIb3DQEJARYUb3Ntb250ZXJvQGljbG91ZC5jb22CFAl9osLH1Dnq
5AFqfL1lLqpHTyobMBMGA1UdJQQMMAoGCCsGAQUFBwMBMAsGA1UdDwQEAwIFoDAR
BgNVHREECjAIggZzZXJ2ZXIwDQYJKoZIhvcNAQELBQADggEBAHtjYBtP5+Ld1AoW
55HLqmt78VhdpJKw9ztjfeIciuVZaNTjXG3tfWk7rPbTZNKZmJ2p+ftsRzlIo3VK
8XTxyldMCXAV1cyYq0Hlg2YTKyvDatHemUHItDldJFcJI2NfI95uG3IRneYefz/z
31kehhuCkznwcNdQxTOWMilHT9ml1Bi+lo8KLbTmWM4z3e1ePG6lPCEvGo9zvx7e
j3hVaEu3I6lQQhGK7yBI8RtPQit3uAjVptdLBD6Nr+sHv79MXgMI2tsv2E2IS7Q3
sfVBLNYIblaXG876siOeY355IDsdcsHCoi+34geKiySJr0pdyiuf7usMmJb5kpwI
GENmdWA=
-----END CERTIFICATE-----
